target datalayout = "e-m:e-p270:32:32-p271:32:32-p272:64:64-i64:64-i128:128-f80:128-n8:16:32:64-S128"
target triple = "x86_64-pc-linux-gnu"

%struct.block_q4_0 = type { i16, [16 x i8] }
%struct.block = type { [4 x i16], [64 x i8] }
%struct.ggml_tensor = type { i32, ptr, [4 x i64], [4 x i64], i32, [16 x i32], i32, [10 x ptr], ptr, i64, ptr, [64 x i8], ptr, [8 x i8] }

@.str = private unnamed_addr constant [136 x i8] c"generated/home/dtcxzyw/WorkSpace/Projects/compilers/llvm-opt-benchmark/bench/llama.cpp/llama.cpp/ggml/src/ggml-cpu/ggml-cpu-aarch64.cpp\00", align 1
@.str.1 = private unnamed_addr constant [23 x i8] c"GGML_ASSERT(%s) failed\00", align 1
@.str.2 = private unnamed_addr constant [26 x i8] c"t->type == GGML_TYPE_Q4_0\00", align 1
@.str.3 = private unnamed_addr constant [47 x i8] c"interleave_block == 4 || interleave_block == 8\00", align 1
@.str.4 = private unnamed_addr constant [49 x i8] c"data_size == nrow * nblocks * sizeof(block_q4_0)\00", align 1
@.str.5 = private unnamed_addr constant [6 x i8] c"false\00", align 1

; Function Attrs: mustprogress uwtable
define internal void @_ZL17make_block_q4_0x4P10block_q4_0j(ptr dead_on_unwind noalias writable sret(%struct.block) align 2 %0, ptr noundef %1, i32 noundef %2) #0 {
  %4 = alloca ptr, align 8
  %5 = alloca i32, align 4
  %6 = alloca i32, align 4
  %7 = alloca i32, align 4
  %8 = alloca i64, align 8
  %9 = alloca i32, align 4
  %10 = alloca i32, align 4
  %11 = alloca i32, align 4
  %12 = alloca i32, align 4
  %13 = alloca i64, align 8
  %14 = alloca i32, align 4
  %15 = alloca i32, align 4
  %16 = alloca i32, align 4
  %17 = alloca i32, align 4
  %18 = alloca i32, align 4
  %19 = alloca i32, align 4
  store ptr %1, ptr %4, align 8, !tbaa !9
  store i32 %2, ptr %5, align 4, !tbaa !12
  call void @llvm.lifetime.start.p0(i64 4, ptr %6) #23
  store i32 0, ptr %6, align 4, !tbaa !12
  br label %20

20:                                               ; preds = %35, %3
  %21 = load i32, ptr %6, align 4, !tbaa !12
  %22 = icmp slt i32 %21, 4
  br i1 %22, label %24, label %23

23:                                               ; preds = %20
  call void @llvm.lifetime.end.p0(i64 4, ptr %6) #23
  br label %38

24:                                               ; preds = %20
  %25 = load ptr, ptr %4, align 8, !tbaa !9
  %26 = load i32, ptr %6, align 4, !tbaa !12
  %27 = sext i32 %26 to i64
  %28 = getelementptr inbounds %struct.block_q4_0, ptr %25, i64 %27
  %29 = getelementptr inbounds nuw %struct.block_q4_0, ptr %28, i32 0, i32 0
  %30 = load i16, ptr %29, align 2, !tbaa !31
  %31 = getelementptr inbounds nuw %struct.block, ptr %0, i32 0, i32 0
  %32 = load i32, ptr %6, align 4, !tbaa !12
  %33 = sext i32 %32 to i64
  %34 = getelementptr inbounds [4 x i16], ptr %31, i64 0, i64 %33
  store i16 %30, ptr %34, align 2, !tbaa !23
  br label %35

35:                                               ; preds = %24
  %36 = load i32, ptr %6, align 4, !tbaa !12
  %37 = add nsw i32 %36, 1
  store i32 %37, ptr %6, align 4, !tbaa !12
  br label %20, !llvm.loop !33

38:                                               ; preds = %23
  call void @llvm.lifetime.start.p0(i64 4, ptr %7) #23
  %39 = load i32, ptr %5, align 4, !tbaa !12
  %40 = udiv i32 64, %39
  store i32 %40, ptr %7, align 4, !tbaa !12
  %41 = load i32, ptr %5, align 4, !tbaa !12
  %42 = icmp eq i32 %41, 8
  br i1 %42, label %43, label %77

43:                                               ; preds = %38
  call void @llvm.lifetime.start.p0(i64 8, ptr %8) #23
  store i64 -8608480567731124088, ptr %8, align 8, !tbaa !10
  call void @llvm.lifetime.start.p0(i64 4, ptr %9) #23
  store i32 0, ptr %9, align 4, !tbaa !12
  br label %44

44:                                               ; preds = %73, %43
  %45 = load i32, ptr %9, align 4, !tbaa !12
  %46 = load i32, ptr %7, align 4, !tbaa !12
  %47 = icmp slt i32 %45, %46
  br i1 %47, label %49, label %48

48:                                               ; preds = %44
  call void @llvm.lifetime.end.p0(i64 4, ptr %9) #23
  br label %76

49:                                               ; preds = %44
  call void @llvm.lifetime.start.p0(i64 4, ptr %10) #23
  %50 = load i32, ptr %9, align 4, !tbaa !12
  %51 = srem i32 %50, 4
  store i32 %51, ptr %10, align 4, !tbaa !12
  call void @llvm.lifetime.start.p0(i64 4, ptr %11) #23
  %52 = load i32, ptr %9, align 4, !tbaa !12
  %53 = sdiv i32 %52, 4
  %54 = load i32, ptr %5, align 4, !tbaa !12
  %55 = mul i32 %53, %54
  store i32 %55, ptr %11, align 4, !tbaa !12
  call void @llvm.lifetime.start.p0(i64 4, ptr %12) #23
  %56 = load i32, ptr %9, align 4, !tbaa !12
  %57 = load i32, ptr %5, align 4, !tbaa !12
  %58 = mul i32 %56, %57
  store i32 %58, ptr %12, align 4, !tbaa !12
  call void @llvm.lifetime.start.p0(i64 8, ptr %13) #23
  %59 = load ptr, ptr %4, align 8, !tbaa !9
  %60 = load i32, ptr %10, align 4, !tbaa !12
  %61 = sext i32 %60 to i64
  %62 = getelementptr inbounds %struct.block_q4_0, ptr %59, i64 %61
  %63 = getelementptr inbounds nuw %struct.block_q4_0, ptr %62, i32 0, i32 1
  %64 = load i32, ptr %11, align 4, !tbaa !12
  %65 = sext i32 %64 to i64
  %66 = getelementptr inbounds [16 x i8], ptr %63, i64 0, i64 %65
  call void @llvm.memcpy.p0.p0.i64(ptr align 8 %13, ptr align 1 %66, i64 8, i1 false)
  %67 = load i64, ptr %13, align 8, !tbaa !10
  %68 = xor i64 %67, -8608480567731124088
  store i64 %68, ptr %13, align 8, !tbaa !10
  %69 = getelementptr inbounds nuw %struct.block, ptr %0, i32 0, i32 1
  %70 = load i32, ptr %12, align 4, !tbaa !12
  %71 = sext i32 %70 to i64
  %72 = getelementptr inbounds [64 x i8], ptr %69, i64 0, i64 %71
  call void @llvm.memcpy.p0.p0.i64(ptr align 1 %72, ptr align 8 %13, i64 8, i1 false)
  call void @llvm.lifetime.end.p0(i64 8, ptr %13) #23
  call void @llvm.lifetime.end.p0(i64 4, ptr %12) #23
  call void @llvm.lifetime.end.p0(i64 4, ptr %11) #23
  call void @llvm.lifetime.end.p0(i64 4, ptr %10) #23
  br label %73

73:                                               ; preds = %49
  %74 = load i32, ptr %9, align 4, !tbaa !12
  %75 = add nsw i32 %74, 1
  store i32 %75, ptr %9, align 4, !tbaa !12
  br label %44, !llvm.loop !34

76:                                               ; preds = %48
  call void @llvm.lifetime.end.p0(i64 8, ptr %8) #23
  br label %116

77:                                               ; preds = %38
  %78 = load i32, ptr %5, align 4, !tbaa !12
  %79 = icmp eq i32 %78, 4
  br i1 %79, label %80, label %114

80:                                               ; preds = %77
  call void @llvm.lifetime.start.p0(i64 4, ptr %14) #23
  store i32 -2004318072, ptr %14, align 4, !tbaa !12
  call void @llvm.lifetime.start.p0(i64 4, ptr %15) #23
  store i32 0, ptr %15, align 4, !tbaa !12
  br label %81

81:                                               ; preds = %110, %80
  %82 = load i32, ptr %15, align 4, !tbaa !12
  %83 = load i32, ptr %7, align 4, !tbaa !12
  %84 = icmp slt i32 %82, %83
  br i1 %84, label %86, label %85

85:                                               ; preds = %81
  call void @llvm.lifetime.end.p0(i64 4, ptr %15) #23
  br label %113

86:                                               ; preds = %81
  call void @llvm.lifetime.start.p0(i64 4, ptr %16) #23
  %87 = load i32, ptr %15, align 4, !tbaa !12
  %88 = srem i32 %87, 4
  store i32 %88, ptr %16, align 4, !tbaa !12
  call void @llvm.lifetime.start.p0(i64 4, ptr %17) #23
  %89 = load i32, ptr %15, align 4, !tbaa !12
  %90 = sdiv i32 %89, 4
  %91 = load i32, ptr %5, align 4, !tbaa !12
  %92 = mul i32 %90, %91
  store i32 %92, ptr %17, align 4, !tbaa !12
  call void @llvm.lifetime.start.p0(i64 4, ptr %18) #23
  %93 = load i32, ptr %15, align 4, !tbaa !12
  %94 = load i32, ptr %5, align 4, !tbaa !12
  %95 = mul i32 %93, %94
  store i32 %95, ptr %18, align 4, !tbaa !12
  call void @llvm.lifetime.start.p0(i64 4, ptr %19) #23
  %96 = load ptr, ptr %4, align 8, !tbaa !9
  %97 = load i32, ptr %16, align 4, !tbaa !12
  %98 = sext i32 %97 to i64
  %99 = getelementptr inbounds %struct.block_q4_0, ptr %96, i64 %98
  %100 = getelementptr inbounds nuw %struct.block_q4_0, ptr %99, i32 0, i32 1
  %101 = load i32, ptr %17, align 4, !tbaa !12
  %102 = sext i32 %101 to i64
  %103 = getelementptr inbounds [16 x i8], ptr %100, i64 0, i64 %102
  call void @llvm.memcpy.p0.p0.i64(ptr align 4 %19, ptr align 1 %103, i64 4, i1 false)
  %104 = load i32, ptr %19, align 4, !tbaa !12
  %105 = xor i32 %104, -2004318072
  store i32 %105, ptr %19, align 4, !tbaa !12
  %106 = getelementptr inbounds nuw %struct.block, ptr %0, i32 0, i32 1
  %107 = load i32, ptr %18, align 4, !tbaa !12
  %108 = sext i32 %107 to i64
  %109 = getelementptr inbounds [64 x i8], ptr %106, i64 0, i64 %108
  call void @llvm.memcpy.p0.p0.i64(ptr align 1 %109, ptr align 4 %19, i64 4, i1 false)
  call void @llvm.lifetime.end.p0(i64 4, ptr %19) #23
  call void @llvm.lifetime.end.p0(i64 4, ptr %18) #23
  call void @llvm.lifetime.end.p0(i64 4, ptr %17) #23
  call void @llvm.lifetime.end.p0(i64 4, ptr %16) #23
  br label %110

110:                                              ; preds = %86
  %111 = load i32, ptr %15, align 4, !tbaa !12
  %112 = add nsw i32 %111, 1
  store i32 %112, ptr %15, align 4, !tbaa !12
  br label %81, !llvm.loop !35

113:                                              ; preds = %85
  call void @llvm.lifetime.end.p0(i64 4, ptr %14) #23
  br label %115

114:                                              ; preds = %77
  call void (ptr, i32, ptr, ...) @ggml_abort(ptr noundef @.str, i32 noundef 3629, ptr noundef @.str.1, ptr noundef @.str.5) #29
  unreachable

115:                                              ; preds = %113
  br label %116

116:                                              ; preds = %115, %76
  call void @llvm.lifetime.end.p0(i64 4, ptr %7) #23
  ret void
}

; Function Attrs: mustprogress uwtable
define internal noundef i32 @_ZL24repack_q4_0_to_q4_0_4_blP11ggml_tensoriPKvm(ptr noundef %0, i32 noundef %1, ptr noalias noundef %2, i64 noundef %3) #0 {
  %5 = alloca i32, align 4
  %6 = alloca ptr, align 8
  %7 = alloca i32, align 4
  %8 = alloca ptr, align 8
  %9 = alloca i64, align 8
  %10 = alloca i32, align 4
  %11 = alloca ptr, align 8
  %12 = alloca ptr, align 8
  %13 = alloca [4 x %struct.block_q4_0], align 16
  %14 = alloca i32, align 4
  %15 = alloca i32, align 4
  %16 = alloca i32, align 4
  %17 = alloca i32, align 4
  %18 = alloca i64, align 8
  %19 = alloca i32, align 4
  %20 = alloca %struct.block, align 2
  store ptr %0, ptr %6, align 8, !tbaa !4
  store i32 %1, ptr %7, align 4, !tbaa !12
  store ptr %2, ptr %8, align 8, !tbaa !9
  store i64 %3, ptr %9, align 8, !tbaa !10
  %21 = load ptr, ptr %6, align 8, !tbaa !4
  %22 = getelementptr inbounds nuw %struct.ggml_tensor, ptr %21, i32 0, i32 0
  %23 = load i32, ptr %22, align 8, !tbaa !14
  %24 = icmp eq i32 %23, 2
  br i1 %24, label %26, label %25

25:                                               ; preds = %4
  call void (ptr, i32, ptr, ...) @ggml_abort(ptr noundef @.str, i32 noundef 3664, ptr noundef @.str.1, ptr noundef @.str.2) #29
  unreachable

26:                                               ; preds = %4
  %27 = load i32, ptr %7, align 4, !tbaa !12
  %28 = icmp eq i32 %27, 4
  br i1 %28, label %33, label %29

29:                                               ; preds = %26
  %30 = load i32, ptr %7, align 4, !tbaa !12
  %31 = icmp eq i32 %30, 8
  br i1 %31, label %33, label %32

32:                                               ; preds = %29
  call void (ptr, i32, ptr, ...) @ggml_abort(ptr noundef @.str, i32 noundef 3665, ptr noundef @.str.1, ptr noundef @.str.3) #29
  unreachable

33:                                               ; preds = %29, %26
  call void @llvm.lifetime.start.p0(i64 4, ptr %10) #23
  store i32 4, ptr %10, align 4, !tbaa !12
  call void @llvm.lifetime.start.p0(i64 8, ptr %11) #23
  %34 = load ptr, ptr %6, align 8, !tbaa !4
  %35 = getelementptr inbounds nuw %struct.ggml_tensor, ptr %34, i32 0, i32 10
  %36 = load ptr, ptr %35, align 8, !tbaa !19
  store ptr %36, ptr %11, align 8, !tbaa !20
  call void @llvm.lifetime.start.p0(i64 8, ptr %12) #23
  %37 = load ptr, ptr %8, align 8, !tbaa !9
  store ptr %37, ptr %12, align 8, !tbaa !9
  call void @llvm.lifetime.start.p0(i64 72, ptr %13) #23
  call void @llvm.lifetime.start.p0(i64 4, ptr %14) #23
  %38 = load ptr, ptr %6, align 8, !tbaa !4
  %39 = call i64 @ggml_nrows(ptr noundef %38)
  %40 = trunc i64 %39 to i32
  store i32 %40, ptr %14, align 4, !tbaa !12
  call void @llvm.lifetime.start.p0(i64 4, ptr %15) #23
  %41 = load ptr, ptr %6, align 8, !tbaa !4
  %42 = getelementptr inbounds nuw %struct.ggml_tensor, ptr %41, i32 0, i32 2
  %43 = getelementptr inbounds [4 x i64], ptr %42, i64 0, i64 0
  %44 = load i64, ptr %43, align 8, !tbaa !10
  %45 = sdiv i64 %44, 32
  %46 = trunc i64 %45 to i32
  store i32 %46, ptr %15, align 4, !tbaa !12
  %47 = load i64, ptr %9, align 8, !tbaa !10
  %48 = load i32, ptr %14, align 4, !tbaa !12
  %49 = load i32, ptr %15, align 4, !tbaa !12
  %50 = mul nsw i32 %48, %49
  %51 = sext i32 %50 to i64
  %52 = mul i64 %51, 18
  %53 = icmp eq i64 %47, %52
  br i1 %53, label %55, label %54

54:                                               ; preds = %33
  call void (ptr, i32, ptr, ...) @ggml_abort(ptr noundef @.str, i32 noundef 3674, ptr noundef @.str.1, ptr noundef @.str.4) #29
  unreachable

55:                                               ; preds = %33
  %56 = load ptr, ptr %6, align 8, !tbaa !4
  %57 = getelementptr inbounds nuw %struct.ggml_tensor, ptr %56, i32 0, i32 2
  %58 = getelementptr inbounds [4 x i64], ptr %57, i64 0, i64 1
  %59 = load i64, ptr %58, align 8, !tbaa !10
  %60 = srem i64 %59, 4
  %61 = icmp ne i64 %60, 0
  br i1 %61, label %69, label %62

62:                                               ; preds = %55
  %63 = load ptr, ptr %6, align 8, !tbaa !4
  %64 = getelementptr inbounds nuw %struct.ggml_tensor, ptr %63, i32 0, i32 2
  %65 = getelementptr inbounds [4 x i64], ptr %64, i64 0, i64 0
  %66 = load i64, ptr %65, align 8, !tbaa !10
  %67 = srem i64 %66, 8
  %68 = icmp ne i64 %67, 0
  br i1 %68, label %69, label %70

69:                                               ; preds = %62, %55
  store i32 -1, ptr %5, align 4
  store i32 1, ptr %16, align 4
  br label %121

70:                                               ; preds = %62
  call void @llvm.lifetime.start.p0(i64 4, ptr %17) #23
  store i32 0, ptr %17, align 4, !tbaa !12
  br label %71

71:                                               ; preds = %117, %70
  %72 = load i32, ptr %17, align 4, !tbaa !12
  %73 = load i32, ptr %14, align 4, !tbaa !12
  %74 = icmp slt i32 %72, %73
  br i1 %74, label %76, label %75

75:                                               ; preds = %71
  store i32 2, ptr %16, align 4
  call void @llvm.lifetime.end.p0(i64 4, ptr %17) #23
  br label %120

76:                                               ; preds = %71
  call void @llvm.lifetime.start.p0(i64 8, ptr %18) #23
  store i64 0, ptr %18, align 8, !tbaa !10
  br label %77

77:                                               ; preds = %108, %76
  %78 = load i64, ptr %18, align 8, !tbaa !10
  %79 = load i32, ptr %15, align 4, !tbaa !12
  %80 = sext i32 %79 to i64
  %81 = icmp slt i64 %78, %80
  br i1 %81, label %83, label %82

82:                                               ; preds = %77
  store i32 5, ptr %16, align 4
  call void @llvm.lifetime.end.p0(i64 8, ptr %18) #23
  br label %111

83:                                               ; preds = %77
  call void @llvm.lifetime.start.p0(i64 4, ptr %19) #23
  store i32 0, ptr %19, align 4, !tbaa !12
  br label %84

84:                                               ; preds = %100, %83
  %85 = load i32, ptr %19, align 4, !tbaa !12
  %86 = icmp slt i32 %85, 4
  br i1 %86, label %88, label %87

87:                                               ; preds = %84
  store i32 8, ptr %16, align 4
  call void @llvm.lifetime.end.p0(i64 4, ptr %19) #23
  br label %103

88:                                               ; preds = %84
  %89 = load ptr, ptr %12, align 8, !tbaa !9
  %90 = load i64, ptr %18, align 8, !tbaa !10
  %91 = load i32, ptr %19, align 4, !tbaa !12
  %92 = load i32, ptr %15, align 4, !tbaa !12
  %93 = mul nsw i32 %91, %92
  %94 = sext i32 %93 to i64
  %95 = add nsw i64 %90, %94
  %96 = getelementptr inbounds %struct.block_q4_0, ptr %89, i64 %95
  %97 = load i32, ptr %19, align 4, !tbaa !12
  %98 = sext i32 %97 to i64
  %99 = getelementptr inbounds [4 x %struct.block_q4_0], ptr %13, i64 0, i64 %98
  call void @llvm.memcpy.p0.p0.i64(ptr align 2 %99, ptr align 2 %96, i64 18, i1 false), !tbaa.struct !22
  br label %100

100:                                              ; preds = %88
  %101 = load i32, ptr %19, align 4, !tbaa !12
  %102 = add nsw i32 %101, 1
  store i32 %102, ptr %19, align 4, !tbaa !12
  br label %84, !llvm.loop !26

103:                                              ; preds = %87
  call void @llvm.lifetime.start.p0(i64 72, ptr %20) #23
  %104 = getelementptr inbounds [4 x %struct.block_q4_0], ptr %13, i64 0, i64 0
  %105 = load i32, ptr %7, align 4, !tbaa !12
  call void @_ZL17make_block_q4_0x4P10block_q4_0j(ptr dead_on_unwind writable sret(%struct.block) align 2 %20, ptr noundef %104, i32 noundef %105)
  %106 = load ptr, ptr %11, align 8, !tbaa !20
  %107 = getelementptr inbounds nuw %struct.block, ptr %106, i32 1
  store ptr %107, ptr %11, align 8, !tbaa !20
  call void @llvm.memcpy.p0.p0.i64(ptr align 2 %106, ptr align 2 %20, i64 72, i1 false), !tbaa.struct !28
  call void @llvm.lifetime.end.p0(i64 72, ptr %20) #23
  br label %108

108:                                              ; preds = %103
  %109 = load i64, ptr %18, align 8, !tbaa !10
  %110 = add nsw i64 %109, 1
  store i64 %110, ptr %18, align 8, !tbaa !10
  br label %77, !llvm.loop !29

111:                                              ; preds = %82
  %112 = load i32, ptr %15, align 4, !tbaa !12
  %113 = mul nsw i32 4, %112
  %114 = load ptr, ptr %12, align 8, !tbaa !9
  %115 = sext i32 %113 to i64
  %116 = getelementptr inbounds %struct.block_q4_0, ptr %114, i64 %115
  store ptr %116, ptr %12, align 8, !tbaa !9
  br label %117

117:                                              ; preds = %111
  %118 = load i32, ptr %17, align 4, !tbaa !12
  %119 = add nsw i32 %118, 4
  store i32 %119, ptr %17, align 4, !tbaa !12
  br label %71, !llvm.loop !30

120:                                              ; preds = %75
  store i32 0, ptr %5, align 4
  store i32 1, ptr %16, align 4
  br label %121

121:                                              ; preds = %120, %69
  call void @llvm.lifetime.end.p0(i64 4, ptr %15) #23
  call void @llvm.lifetime.end.p0(i64 4, ptr %14) #23
  call void @llvm.lifetime.end.p0(i64 72, ptr %13) #23
  call void @llvm.lifetime.end.p0(i64 8, ptr %12) #23
  call void @llvm.lifetime.end.p0(i64 8, ptr %11) #23
  call void @llvm.lifetime.end.p0(i64 4, ptr %10) #23
  %122 = load i32, ptr %5, align 4
  ret i32 %122
}