; Function Attrs: mustprogress uwtable
define internal fastcc noundef range(i32 -1, 1) i32 @_ZL24repack_q4_0_to_q4_0_4_blP11ggml_tensoriPKvm(ptr noundef %0, i32 noundef range(i32 4, 9) %1, ptr noalias noundef readonly captures(none) %2, i64 noundef %3) unnamed_addr #0 {
  %5 = alloca [4 x %struct.block_q4_0], align 16
  %6 = alloca %struct.block, align 2
  %7 = load i32, ptr %0, align 8, !tbaa !4
  %8 = icmp eq i32 %7, 2
  br i1 %8, label %10, label %9

9:                                                ; preds = %4
  tail call void (ptr, i32, ptr, ...) @ggml_abort(ptr noundef nonnull @.str, i32 noundef 3664, ptr noundef nonnull @.str.1, ptr noundef nonnull @.str.2) #22
  unreachable

10:                                               ; preds = %4
  switch i32 %1, label %11 [
    i32 8, label %12
    i32 4, label %12
  ]

11:                                               ; preds = %10
  tail call void (ptr, i32, ptr, ...) @ggml_abort(ptr noundef nonnull @.str, i32 noundef 3665, ptr noundef nonnull @.str.1, ptr noundef nonnull @.str.3) #22
  unreachable

12:                                               ; preds = %10, %10
  %13 = getelementptr inbounds nuw i8, ptr %0, i64 248
  %14 = load ptr, ptr %13, align 8, !tbaa !15
  call void @llvm.lifetime.start.p0(i64 72, ptr nonnull %5) #23
  %15 = tail call i64 @ggml_nrows(ptr noundef nonnull %0)
  %16 = trunc i64 %15 to i32
  %17 = getelementptr inbounds nuw i8, ptr %0, i64 16
  %18 = load i64, ptr %17, align 8, !tbaa !16
  %19 = sdiv i64 %18, 32
  %20 = trunc i64 %19 to i32
  %21 = shl i64 %15, 32
  %sext = mul i64 %21, %19
  %22 = ashr exact i64 %sext, 32
  %23 = mul nsw i64 %22, 18
  %24 = icmp eq i64 %3, %23
  br i1 %24, label %26, label %25

25:                                               ; preds = %12
  tail call void (ptr, i32, ptr, ...) @ggml_abort(ptr noundef nonnull @.str, i32 noundef 3674, ptr noundef nonnull @.str.1, ptr noundef nonnull @.str.4) #22
  unreachable

26:                                               ; preds = %12
  %27 = getelementptr inbounds nuw i8, ptr %0, i64 24
  %28 = load i64, ptr %27, align 8, !tbaa !16
  %29 = and i64 %28, 3
  %30 = and i64 %18, 7
  %31 = or i64 %29, %30
  %or.cond = icmp eq i64 %31, 0
  br i1 %or.cond, label %.preheader39, label %.loopexit

.preheader39:                                     ; preds = %26
  %32 = icmp sgt i32 %16, 0
  br i1 %32, label %.preheader38.lr.ph, label %.loopexit

.preheader38.lr.ph:                               ; preds = %.preheader39
  %sext36 = shl i64 %19, 32
  %33 = ashr exact i64 %sext36, 32
  %34 = icmp sgt i64 %33, 0
  %35 = getelementptr inbounds nuw i8, ptr %6, i64 8
  %36 = shl nsw i32 %20, 2
  %37 = sext i32 %36 to i64
  br i1 %34, label %.preheader38.lr.ph.split.us, label %.loopexit

.preheader38.lr.ph.split.us:                      ; preds = %.preheader38.lr.ph
  %.rhs.trunc.i = trunc nuw nsw i32 %1 to i8
  %38 = udiv i8 64, %.rhs.trunc.i
  %wide.trip.count.i.us = zext nneg i8 %38 to i64
  %sext51 = shl i64 %19, 32
  %39 = ashr exact i64 %sext51, 32
  br label %.preheader38.us

.preheader38.us:                                  ; preds = %._crit_edge.us, %.preheader38.lr.ph.split.us
  %.03146.us = phi i32 [ 0, %.preheader38.lr.ph.split.us ], [ %68, %._crit_edge.us ]
  %.03345.us = phi ptr [ %14, %.preheader38.lr.ph.split.us ], [ %60, %._crit_edge.us ]
  %.03444.us = phi ptr [ %2, %.preheader38.lr.ph.split.us ], [ %67, %._crit_edge.us ]
  br label %.preheader.us

40:                                               ; preds = %62
  call void @llvm.lifetime.start.p0(i64 72, ptr nonnull %6) #23
  tail call void @llvm.experimental.noalias.scope.decl(metadata !17)
  br label %41

41:                                               ; preds = %41, %40
  %indvars.iv.i.us = phi i64 [ 0, %40 ], [ %indvars.iv.next.i.us, %41 ]
  %42 = getelementptr inbounds nuw %struct.block_q4_0, ptr %5, i64 %indvars.iv.i.us
  %43 = load i16, ptr %42, align 2, !tbaa !20, !noalias !17
  %44 = getelementptr inbounds nuw [4 x i16], ptr %6, i64 0, i64 %indvars.iv.i.us
  store i16 %43, ptr %44, align 2, !tbaa !23, !alias.scope !17
  %indvars.iv.next.i.us = add nuw nsw i64 %indvars.iv.i.us, 1
  %exitcond.not.i.us = icmp eq i64 %indvars.iv.next.i.us, 4
  br i1 %exitcond.not.i.us, label %45, label %41, !llvm.loop !24

45:                                               ; preds = %41
  switch i32 %1, label %.split.us [
    i32 8, label %.preheader.i.us
    i32 4, label %.preheader39.i.us
  ]

.preheader39.i.us:                                ; preds = %45, %.preheader39.i.us
  %indvars.iv46.i.us = phi i64 [ %indvars.iv.next47.i.us, %.preheader39.i.us ], [ 0, %45 ]
  %46 = and i64 %indvars.iv46.i.us, 3
  %47 = and i64 %indvars.iv46.i.us, 2147483644
  %48 = shl i64 %indvars.iv46.i.us, 2
  %49 = getelementptr inbounds nuw %struct.block_q4_0, ptr %5, i64 %46, i32 1, i64 %47
  %.0.copyload.i.us = load i32, ptr %49, align 2, !noalias !17
  %50 = xor i32 %.0.copyload.i.us, -2004318072
  %51 = getelementptr inbounds [64 x i8], ptr %35, i64 0, i64 %48
  store i32 %50, ptr %51, align 2, !alias.scope !17
  %indvars.iv.next47.i.us = add nuw nsw i64 %indvars.iv46.i.us, 1
  %exitcond49.not.i.us = icmp eq i64 %indvars.iv.next47.i.us, %wide.trip.count.i.us
  br i1 %exitcond49.not.i.us, label %_ZL17make_block_q4_0x4P10block_q4_0j.exit.us, label %.preheader39.i.us, !llvm.loop !26

.preheader.i.us:                                  ; preds = %45, %.preheader.i.us
  %indvars.iv50.i.us = phi i64 [ %indvars.iv.next51.i.us, %.preheader.i.us ], [ 0, %45 ]
  %52 = and i64 %indvars.iv50.i.us, 3
  %indvars.iv50.tr.i.us = trunc i64 %indvars.iv50.i.us to i32
  %53 = shl i32 %indvars.iv50.tr.i.us, 1
  %54 = and i32 %53, -8
  %55 = shl i64 %indvars.iv50.i.us, 3
  %56 = sext i32 %54 to i64
  %57 = getelementptr inbounds %struct.block_q4_0, ptr %5, i64 %52, i32 1, i64 %56
  %.0.copyload10.i.us = load i64, ptr %57, align 2, !noalias !17
  %58 = xor i64 %.0.copyload10.i.us, -8608480567731124088
  %59 = getelementptr inbounds [64 x i8], ptr %35, i64 0, i64 %55
  store i64 %58, ptr %59, align 2, !alias.scope !17
  %indvars.iv.next51.i.us = add nuw nsw i64 %indvars.iv50.i.us, 1
  %exitcond54.not.i.us = icmp eq i64 %indvars.iv.next51.i.us, %wide.trip.count.i.us
  br i1 %exitcond54.not.i.us, label %_ZL17make_block_q4_0x4P10block_q4_0j.exit.us, label %.preheader.i.us, !llvm.loop !27

_ZL17make_block_q4_0x4P10block_q4_0j.exit.us:     ; preds = %.preheader39.i.us, %.preheader.i.us
  %60 = getelementptr inbounds nuw i8, ptr %.142.us, i64 72
  call void @llvm.memcpy.p0.p0.i64(ptr noundef nonnull align 2 dereferenceable(72) %.142.us, ptr noundef nonnull align 2 dereferenceable(72) %6, i64 72, i1 false), !tbaa.struct !28
  call void @llvm.lifetime.end.p0(i64 72, ptr nonnull %6) #23
  %61 = add nuw nsw i64 %.03043.us, 1
  %exitcond50.not = icmp eq i64 %61, %33
  br i1 %exitcond50.not, label %._crit_edge.us, label %.preheader.us, !llvm.loop !30

62:                                               ; preds = %.preheader.us, %62
  %indvars.iv = phi i64 [ 0, %.preheader.us ], [ %indvars.iv.next, %62 ]
  %63 = mul nsw i64 %indvars.iv, %39
  %64 = getelementptr %struct.block_q4_0, ptr %66, i64 %63
  %65 = getelementptr inbounds nuw [4 x %struct.block_q4_0], ptr %5, i64 0, i64 %indvars.iv
  call void @llvm.memcpy.p0.p0.i64(ptr noundef nonnull align 2 dereferenceable(18) %65, ptr noundef nonnull align 2 dereferenceable(18) %64, i64 18, i1 false), !tbaa.struct !31
  %indvars.iv.next = add nuw nsw i64 %indvars.iv, 1
  %exitcond.not = icmp eq i64 %indvars.iv.next, 4
  br i1 %exitcond.not, label %40, label %62, !llvm.loop !32

.preheader.us:                                    ; preds = %.preheader38.us, %_ZL17make_block_q4_0x4P10block_q4_0j.exit.us
  %.03043.us = phi i64 [ 0, %.preheader38.us ], [ %61, %_ZL17make_block_q4_0x4P10block_q4_0j.exit.us ]
  %.142.us = phi ptr [ %.03345.us, %.preheader38.us ], [ %60, %_ZL17make_block_q4_0x4P10block_q4_0j.exit.us ]
  %66 = getelementptr %struct.block_q4_0, ptr %.03444.us, i64 %.03043.us
  br label %62

._crit_edge.us:                                   ; preds = %_ZL17make_block_q4_0x4P10block_q4_0j.exit.us
  %67 = getelementptr inbounds %struct.block_q4_0, ptr %.03444.us, i64 %37
  %68 = add nuw nsw i32 %.03146.us, 4
  %69 = icmp slt i32 %68, %16
  br i1 %69, label %.preheader38.us, label %.loopexit, !llvm.loop !33

.split.us:                                        ; preds = %45
  tail call void (ptr, i32, ptr, ...) @ggml_abort(ptr noundef nonnull @.str, i32 noundef 3629, ptr noundef nonnull @.str.1, ptr noundef nonnull @.str.5) #22, !noalias !17
  unreachable

.loopexit:                                        ; preds = %._crit_edge.us, %.preheader38.lr.ph, %.preheader39, %26
  %.032 = phi i32 [ -1, %26 ], [ 0, %.preheader39 ], [ 0, %.preheader38.lr.ph ], [ 0, %._crit_edge.us ]
  call void @llvm.lifetime.end.p0(i64 72, ptr nonnull %5) #23
  ret i32 %.032
}